target datalayout = "e-m:e-p270:32:32-p271:32:32-p272:64:64-i64:64-i128:128-f80:128-n8:16:32:64-S128"
target triple = "x86_64-pc-linux-gnu"

; Function Attrs: nounwind uwtable
define internal void @sum2_s16(ptr noundef %0, ptr noundef %1, ptr noundef %2, ptr noundef %3, i32 noundef %4, i32 noundef %5, i32 noundef %6) #0 {
  %8 = alloca ptr, align 8
  %9 = alloca ptr, align 8
  %10 = alloca ptr, align 8
  %11 = alloca ptr, align 8
  %12 = alloca i32, align 4
  %13 = alloca i32, align 4
  %14 = alloca i32, align 4
  %15 = alloca i32, align 4
  %16 = alloca i32, align 4
  %17 = alloca i32, align 4
  store ptr %0, ptr %8, align 8, !tbaa !84
  store ptr %1, ptr %9, align 8, !tbaa !84
  store ptr %2, ptr %10, align 8, !tbaa !84
  store ptr %3, ptr %11, align 8, !tbaa !86
  store i32 %4, ptr %12, align 4, !tbaa !11
  store i32 %5, ptr %13, align 4, !tbaa !11
  store i32 %6, ptr %14, align 4, !tbaa !11
  call void @llvm.lifetime.start.p0(i64 4, ptr %15) #9
  call void @llvm.lifetime.start.p0(i64 4, ptr %16) #9
  %18 = load ptr, ptr %11, align 8, !tbaa !86
  %19 = load i32, ptr %12, align 4, !tbaa !11
  %20 = sext i32 %19 to i64
  %21 = getelementptr inbounds i32, ptr %18, i64 %20
  %22 = load i32, ptr %21, align 4, !tbaa !11
  store i32 %22, ptr %16, align 4, !tbaa !11
  call void @llvm.lifetime.start.p0(i64 4, ptr %17) #9
  %23 = load ptr, ptr %11, align 8, !tbaa !86
  %24 = load i32, ptr %13, align 4, !tbaa !11
  %25 = sext i32 %24 to i64
  %26 = getelementptr inbounds i32, ptr %23, i64 %25
  %27 = load i32, ptr %26, align 4, !tbaa !11
  store i32 %27, ptr %17, align 4, !tbaa !11
  store i32 0, ptr %15, align 4, !tbaa !11
  br label %28

28:                                               ; preds = %57, %7
  %29 = load i32, ptr %15, align 4, !tbaa !11
  %30 = load i32, ptr %14, align 4, !tbaa !11
  %31 = icmp slt i32 %29, %30
  br i1 %31, label %32, label %60

32:                                               ; preds = %28
  %33 = load i32, ptr %16, align 4, !tbaa !11
  %34 = load ptr, ptr %9, align 8, !tbaa !84
  %35 = load i32, ptr %15, align 4, !tbaa !11
  %36 = sext i32 %35 to i64
  %37 = getelementptr inbounds i16, ptr %34, i64 %36
  %38 = load i16, ptr %37, align 2, !tbaa !87
  %39 = sext i16 %38 to i32
  %40 = mul nsw i32 %33, %39
  %41 = load i32, ptr %17, align 4, !tbaa !11
  %42 = load ptr, ptr %10, align 8, !tbaa !84
  %43 = load i32, ptr %15, align 4, !tbaa !11
  %44 = sext i32 %43 to i64
  %45 = getelementptr inbounds i16, ptr %42, i64 %44
  %46 = load i16, ptr %45, align 2, !tbaa !87
  %47 = sext i16 %46 to i32
  %48 = mul nsw i32 %41, %47
  %49 = add nsw i32 %40, %48
  %50 = add nsw i32 %49, 16384
  %51 = ashr i32 %50, 15
  %52 = trunc i32 %51 to i16
  %53 = load ptr, ptr %8, align 8, !tbaa !84
  %54 = load i32, ptr %15, align 4, !tbaa !11
  %55 = sext i32 %54 to i64
  %56 = getelementptr inbounds i16, ptr %53, i64 %55
  store i16 %52, ptr %56, align 2, !tbaa !87
  br label %57

57:                                               ; preds = %32
  %58 = load i32, ptr %15, align 4, !tbaa !11
  %59 = add nsw i32 %58, 1
  store i32 %59, ptr %15, align 4, !tbaa !11
  br label %28, !llvm.loop !90

60:                                               ; preds = %28
  call void @llvm.lifetime.end.p0(i64 4, ptr %17) #9
  call void @llvm.lifetime.end.p0(i64 4, ptr %16) #9
  call void @llvm.lifetime.end.p0(i64 4, ptr %15) #9
  ret void
}